target datalayout = "e-m:e-p270:32:32-p271:32:32-p272:64:64-i64:64-i128:128-f80:128-n8:16:32:64-S128"
target triple = "x86_64-pc-linux-gnu"

%"class.std::allocator" = type { i8 }
%class.cache_sim_t = type <{ ptr, %class.lfsr_t, [4 x i8], ptr, i64, i64, i64, i64, ptr, i64, i64, i64, i64, i64, i64, i64, %"class.std::__cxx11::basic_string", i8, [7 x i8] }>
%class.lfsr_t = type { i32 }
%"class.std::__cxx11::basic_string" = type { %"struct.std::__cxx11::basic_string<char>::_Alloc_hider", i64, %union.anon }
%"struct.std::__cxx11::basic_string<char>::_Alloc_hider" = type { ptr }
%union.anon = type { i64, [8 x i8] }

@_ZTV11cache_sim_t = unnamed_addr constant { [6 x ptr] } { [6 x ptr] [ptr null, ptr @_ZTI11cache_sim_t, ptr @_ZN11cache_sim_tD1Ev, ptr @_ZN11cache_sim_tD0Ev, ptr @_ZN11cache_sim_t9check_tagEm, ptr @_ZN11cache_sim_t9victimizeEm] }, align 8

; Function Attrs: mustprogress nounwind uwtable
define linkonce_odr void @_ZN6lfsr_tC2Ev(ptr noundef nonnull align 4 dereferenceable(4) %0) unnamed_addr #5 comdat align 2 {
  %2 = alloca ptr, align 8
  store ptr %0, ptr %2, align 8
  %3 = load ptr, ptr %2, align 8
  %4 = getelementptr inbounds %class.lfsr_t, ptr %3, i32 0, i32 0
  store i32 1, ptr %4, align 4
  ret void
}

; Function Attrs: mustprogress uwtable
define void @_ZN11cache_sim_tC2EmmmPKc(ptr noundef nonnull align 8 dereferenceable(153) %0, i64 noundef %1, i64 noundef %2, i64 noundef %3, ptr noundef %4) unnamed_addr #4 align 2 personality ptr @__gxx_personality_v0 {
  %6 = alloca ptr, align 8
  %7 = alloca i64, align 8
  %8 = alloca i64, align 8
  %9 = alloca i64, align 8
  %10 = alloca ptr, align 8
  %11 = alloca %"class.std::allocator", align 1
  %12 = alloca ptr, align 8
  %13 = alloca i32, align 4
  store ptr %0, ptr %6, align 8
  store i64 %1, ptr %7, align 8
  store i64 %2, ptr %8, align 8
  store i64 %3, ptr %9, align 8
  store ptr %4, ptr %10, align 8
  %14 = load ptr, ptr %6, align 8
  store ptr getelementptr inbounds ({ [6 x ptr] }, ptr @_ZTV11cache_sim_t, i32 0, i32 0, i32 2), ptr %14, align 8
  %15 = getelementptr inbounds %class.cache_sim_t, ptr %14, i32 0, i32 1
  call void @_ZN6lfsr_tC2Ev(ptr noundef nonnull align 4 dereferenceable(4) %15)
  %16 = getelementptr inbounds %class.cache_sim_t, ptr %14, i32 0, i32 4
  %17 = load i64, ptr %7, align 8
  store i64 %17, ptr %16, align 8
  %18 = getelementptr inbounds %class.cache_sim_t, ptr %14, i32 0, i32 5
  %19 = load i64, ptr %8, align 8
  store i64 %19, ptr %18, align 8
  %20 = getelementptr inbounds %class.cache_sim_t, ptr %14, i32 0, i32 6
  %21 = load i64, ptr %9, align 8
  store i64 %21, ptr %20, align 8
  %22 = getelementptr inbounds %class.cache_sim_t, ptr %14, i32 0, i32 16
  %23 = load ptr, ptr %10, align 8
  call void @_ZNSaIcEC1Ev(ptr noundef nonnull align 1 dereferenceable(1) %11) #3
  invoke void @_ZNSt7__cxx1112basic_stringIcSt11char_traitsIcESaIcEEC2IS3_EEPKcRKS3_(ptr noundef nonnull align 8 dereferenceable(32) %22, ptr noundef %23, ptr noundef nonnull align 1 dereferenceable(1) %11)
          to label %24 unwind label %27

24:                                               ; preds = %5
  call void @_ZNSaIcED1Ev(ptr noundef nonnull align 1 dereferenceable(1) %11) #3
  %25 = getelementptr inbounds %class.cache_sim_t, ptr %14, i32 0, i32 17
  store i8 0, ptr %25, align 8
  invoke void @_ZN11cache_sim_t4initEv(ptr noundef nonnull align 8 dereferenceable(153) %14)
          to label %26 unwind label %31

26:                                               ; preds = %24
  ret void

27:                                               ; preds = %5
  %28 = landingpad { ptr, i32 }
          cleanup
  %29 = extractvalue { ptr, i32 } %28, 0
  store ptr %29, ptr %12, align 8
  %30 = extractvalue { ptr, i32 } %28, 1
  store i32 %30, ptr %13, align 4
  call void @_ZNSaIcED1Ev(ptr noundef nonnull align 1 dereferenceable(1) %11) #3
  br label %35

31:                                               ; preds = %24
  %32 = landingpad { ptr, i32 }
          cleanup
  %33 = extractvalue { ptr, i32 } %32, 0
  store ptr %33, ptr %12, align 8
  %34 = extractvalue { ptr, i32 } %32, 1
  store i32 %34, ptr %13, align 4
  call void @_ZNSt7__cxx1112basic_stringIcSt11char_traitsIcESaIcEED2Ev(ptr noundef nonnull align 8 dereferenceable(32) %22) #3
  br label %35

35:                                               ; preds = %31, %27
  %36 = load ptr, ptr %12, align 8
  %37 = load i32, ptr %13, align 4
  %38 = insertvalue { ptr, i32 } poison, ptr %36, 0
  %39 = insertvalue { ptr, i32 } %38, i32 %37, 1
  resume { ptr, i32 } %39
}