; Function Attrs: mustprogress uwtable
define void @_ZN11cache_sim_tC2EmmmPKc(ptr noundef nonnull align 8 dereferenceable(153) %0, i64 noundef %1, i64 noundef %2, i64 noundef %3, ptr noundef %4) unnamed_addr #3 align 2 personality ptr @__gxx_personality_v0 {
  %6 = alloca %"class.std::allocator", align 1
  store ptr getelementptr inbounds ({ [6 x ptr] }, ptr @_ZTV11cache_sim_t, i64 0, i32 0, i64 2), ptr %0, align 8
  %7 = getelementptr inbounds i8, ptr %0, i64 8
  store i32 1, ptr %7, align 8
  %8 = getelementptr inbounds i8, ptr %0, i64 24
  store i64 %1, ptr %8, align 8
  %9 = getelementptr inbounds i8, ptr %0, i64 32
  store i64 %2, ptr %9, align 8
  %10 = getelementptr inbounds i8, ptr %0, i64 40
  store i64 %3, ptr %10, align 8
  %11 = getelementptr inbounds i8, ptr %0, i64 120
  call void @_ZNSaIcEC1Ev(ptr noundef nonnull align 1 dereferenceable(1) %6) #20
  invoke void @_ZNSt7__cxx1112basic_stringIcSt11char_traitsIcESaIcEEC2IS3_EEPKcRKS3_(ptr noundef nonnull align 8 dereferenceable(32) %11, ptr noundef %4, ptr noundef nonnull align 1 dereferenceable(1) %6)
          to label %12 unwind label %15

12:                                               ; preds = %5
  call void @_ZNSaIcED1Ev(ptr noundef nonnull align 1 dereferenceable(1) %6) #20
  %13 = getelementptr inbounds i8, ptr %0, i64 152
  store i8 0, ptr %13, align 8
  invoke void @_ZN11cache_sim_t4initEv(ptr noundef nonnull align 8 dereferenceable(153) %0)
          to label %14 unwind label %17

14:                                               ; preds = %12
  ret void

15:                                               ; preds = %5
  %16 = landingpad { ptr, i32 }
          cleanup
  call void @_ZNSaIcED1Ev(ptr noundef nonnull align 1 dereferenceable(1) %6) #20
  br label %19

17:                                               ; preds = %12
  %18 = landingpad { ptr, i32 }
          cleanup
  call void @_ZNSt7__cxx1112basic_stringIcSt11char_traitsIcESaIcEED2Ev(ptr noundef nonnull align 8 dereferenceable(32) %11) #20
  br label %19

19:                                               ; preds = %17, %15
  %.pn = phi { ptr, i32 } [ %18, %17 ], [ %16, %15 ]
  resume { ptr, i32 } %.pn
}